target datalayout = "e-m:e-p270:32:32-p271:32:32-p272:64:64-i64:64-i128:128-f80:128-n8:16:32:64-S128"
target triple = "x86_64-pc-linux-gnu"

%"struct.std::__detail::_Hash_node_base" = type { ptr }
%"struct.std::__detail::_Prime_rehash_policy" = type { float, i64 }
%"class.std::unordered_map.10" = type { %"class.std::_Hashtable.11" }
%"class.std::_Hashtable.11" = type { ptr, i64, %"struct.std::__detail::_Hash_node_base", i64, %"struct.std::__detail::_Prime_rehash_policy", ptr }
%"class.std::basic_string_view" = type { i64, ptr }
%struct.WasmEdge_ProgramOption = type { ptr, ptr, i32, ptr, ptr }
%class.anon.318 = type { ptr, ptr }
%"struct.std::pair.267" = type { ptr, %"class.std::variant" }
%"class.std::variant" = type { %"struct.std::__detail::__variant::_Variant_base.base", [7 x i8] }
%"struct.std::__detail::__variant::_Variant_base.base" = type { %"struct.std::__detail::__variant::_Move_assign_base.base" }
%"struct.std::__detail::__variant::_Move_assign_base.base" = type { %"struct.std::__detail::__variant::_Copy_assign_base.base" }
%"struct.std::__detail::__variant::_Copy_assign_base.base" = type { %"struct.std::__detail::__variant::_Move_ctor_base.base" }
%"struct.std::__detail::__variant::_Move_ctor_base.base" = type { %"struct.std::__detail::__variant::_Copy_ctor_base.base" }
%"struct.std::__detail::__variant::_Copy_ctor_base.base" = type { %"struct.std::__detail::__variant::_Variant_storage.base" }
%"struct.std::__detail::__variant::_Variant_storage.base" = type { %"union.std::__detail::__variant::_Variadic_union", i8 }
%"union.std::__detail::__variant::_Variadic_union" = type { %"union.std::__detail::__variant::_Variadic_union.271" }
%"union.std::__detail::__variant::_Variadic_union.271" = type { %"struct.std::__detail::__variant::_Uninitialized.272" }
%"struct.std::__detail::__variant::_Uninitialized.272" = type { %"class.WasmEdge::PO::Option.273" }
%"class.WasmEdge::PO::Option.273" = type <{ ptr, ptr, %"class.std::basic_string_view", %"class.std::basic_string_view", i8, [7 x i8] }>
%"struct.std::__detail::__variant::_Variant_storage" = type { %"union.std::__detail::__variant::_Variadic_union", i8, [7 x i8] }
%"class.WasmEdge::PO::ArgumentParser" = type { %"class.std::vector.76", i64, %"class.std::vector.81", %"class.WasmEdge::PO::Option" }
%"class.std::vector.76" = type { %"struct.std::_Vector_base.77" }
%"struct.std::_Vector_base.77" = type { %"struct.std::_Vector_base<WasmEdge::PO::ArgumentParser::SubCommandDescriptor, std::allocator<WasmEdge::PO::ArgumentParser::SubCommandDescriptor>>::_Vector_impl" }
%"struct.std::_Vector_base<WasmEdge::PO::ArgumentParser::SubCommandDescriptor, std::allocator<WasmEdge::PO::ArgumentParser::SubCommandDescriptor>>::_Vector_impl" = type { %"struct.std::_Vector_base<WasmEdge::PO::ArgumentParser::SubCommandDescriptor, std::allocator<WasmEdge::PO::ArgumentParser::SubCommandDescriptor>>::_Vector_impl_data" }
%"struct.std::_Vector_base<WasmEdge::PO::ArgumentParser::SubCommandDescriptor, std::allocator<WasmEdge::PO::ArgumentParser::SubCommandDescriptor>>::_Vector_impl_data" = type { ptr, ptr, ptr }
%"class.std::vector.81" = type { %"struct.std::_Vector_base.82" }
%"struct.std::_Vector_base.82" = type { %"struct.std::_Vector_base<unsigned long, std::allocator<unsigned long>>::_Vector_impl" }
%"struct.std::_Vector_base<unsigned long, std::allocator<unsigned long>>::_Vector_impl" = type { %"struct.std::_Vector_base<unsigned long, std::allocator<unsigned long>>::_Vector_impl_data" }
%"struct.std::_Vector_base<unsigned long, std::allocator<unsigned long>>::_Vector_impl_data" = type { ptr, ptr, ptr }
%"class.WasmEdge::PO::Option" = type <{ i8, [7 x i8], %"class.std::basic_string_view", i8, [7 x i8] }>
%"class.WasmEdge::PO::ArgumentParser::SubCommandDescriptor" = type { ptr, %"class.std::vector.320", %"class.std::vector.325", %"class.std::vector.330", %"class.std::unordered_map.335", %"class.std::unordered_map.10", %"class.std::unordered_map.10", %"class.std::vector.81", %"class.std::vector.81", %"class.std::vector.81", %"class.std::unique_ptr.355" }
%"class.std::vector.320" = type { %"struct.std::_Vector_base.321" }
%"struct.std::_Vector_base.321" = type { %"struct.std::_Vector_base<std::basic_string_view<char>, std::allocator<std::basic_string_view<char>>>::_Vector_impl" }
%"struct.std::_Vector_base<std::basic_string_view<char>, std::allocator<std::basic_string_view<char>>>::_Vector_impl" = type { %"struct.std::_Vector_base<std::basic_string_view<char>, std::allocator<std::basic_string_view<char>>>::_Vector_impl_data" }
%"struct.std::_Vector_base<std::basic_string_view<char>, std::allocator<std::basic_string_view<char>>>::_Vector_impl_data" = type { ptr, ptr, ptr }
%"class.std::vector.325" = type { %"struct.std::_Vector_base.326" }
%"struct.std::_Vector_base.326" = type { %"struct.std::_Vector_base<const char *, std::allocator<const char *>>::_Vector_impl" }
%"struct.std::_Vector_base<const char *, std::allocator<const char *>>::_Vector_impl" = type { %"struct.std::_Vector_base<const char *, std::allocator<const char *>>::_Vector_impl_data" }
%"struct.std::_Vector_base<const char *, std::allocator<const char *>>::_Vector_impl_data" = type { ptr, ptr, ptr }
%"class.std::vector.330" = type { %"struct.std::_Vector_base.331" }
%"struct.std::_Vector_base.331" = type { %"struct.std::_Vector_base<WasmEdge::PO::ArgumentParser::ArgumentDescriptor, std::allocator<WasmEdge::PO::ArgumentParser::ArgumentDescriptor>>::_Vector_impl" }
%"struct.std::_Vector_base<WasmEdge::PO::ArgumentParser::ArgumentDescriptor, std::allocator<WasmEdge::PO::ArgumentParser::ArgumentDescriptor>>::_Vector_impl" = type { %"struct.std::_Vector_base<WasmEdge::PO::ArgumentParser::ArgumentDescriptor, std::allocator<WasmEdge::PO::ArgumentParser::ArgumentDescriptor>>::_Vector_impl_data" }
%"struct.std::_Vector_base<WasmEdge::PO::ArgumentParser::ArgumentDescriptor, std::allocator<WasmEdge::PO::ArgumentParser::ArgumentDescriptor>>::_Vector_impl_data" = type { ptr, ptr, ptr }
%"class.std::unordered_map.335" = type { %"class.std::_Hashtable.336" }
%"class.std::_Hashtable.336" = type { ptr, i64, %"struct.std::__detail::_Hash_node_base", i64, %"struct.std::__detail::_Prime_rehash_policy", ptr }
%"class.std::unique_ptr.355" = type { %"struct.std::__uniq_ptr_data.356" }
%"struct.std::__uniq_ptr_data.356" = type { %"class.std::__uniq_ptr_impl.357" }
%"class.std::__uniq_ptr_impl.357" = type { %"class.std::tuple.358" }
%"class.std::tuple.358" = type { %"struct.std::_Tuple_impl.359" }
%"struct.std::_Tuple_impl.359" = type { %"struct.std::_Head_base.362" }
%"struct.std::_Head_base.362" = type { ptr }

; Function Attrs: mustprogress nounwind uwtable
define linkonce_odr hidden noundef nonnull align 8 dereferenceable(328) ptr @_ZNSt6vectorIN8WasmEdge2PO14ArgumentParser20SubCommandDescriptorESaIS3_EEixEm(ptr noundef nonnull align 8 dereferenceable(24) %0, i64 noundef %1) #1 comdat align 2 {
  %3 = alloca ptr, align 8
  %4 = alloca i64, align 8
  store ptr %0, ptr %3, align 8
  store i64 %1, ptr %4, align 8
  %5 = load ptr, ptr %3, align 8
  %6 = getelementptr inbounds %"struct.std::_Vector_base.77", ptr %5, i32 0, i32 0
  %7 = getelementptr inbounds %"struct.std::_Vector_base<WasmEdge::PO::ArgumentParser::SubCommandDescriptor, std::allocator<WasmEdge::PO::ArgumentParser::SubCommandDescriptor>>::_Vector_impl_data", ptr %6, i32 0, i32 0
  %8 = load ptr, ptr %7, align 8
  %9 = load i64, ptr %4, align 8
  %10 = getelementptr inbounds %"class.WasmEdge::PO::ArgumentParser::SubCommandDescriptor", ptr %8, i64 %9
  ret ptr %10
}

; Function Attrs: noreturn nounwind uwtable
define linkonce_odr hidden void @__clang_call_terminate(ptr noundef %0) #5 comdat {
  %2 = call ptr @__cxa_begin_catch(ptr %0) #2
  call void @_ZSt9terminatev() #18
  unreachable
}

; Function Attrs: mustprogress nounwind uwtable
define linkonce_odr hidden noundef i64 @_ZNSt11char_traitsIcE6lengthEPKc(ptr noundef %0) #1 comdat align 2 {
  %2 = alloca ptr, align 8
  store ptr %0, ptr %2, align 8
  %3 = load ptr, ptr %2, align 8
  %4 = call i64 @strlen(ptr noundef %3) #2
  ret i64 %4
}

; Function Attrs: mustprogress nounwind uwtable
define linkonce_odr hidden noundef nonnull align 8 dereferenceable(88) ptr @_ZN8WasmEdge2PO14ArgumentParser10add_optionINS0_6OptionIPaNS0_6ParserIaEEEEEERS1_St17basic_string_viewIcSt11char_traitsIcEERT_(ptr noundef nonnull align 8 dereferenceable(88) %0, i64 %1, ptr %2, ptr noundef nonnull align 8 dereferenceable(49) %3) #1 comdat align 2 {
  %5 = alloca %"class.std::basic_string_view", align 8
  %6 = alloca ptr, align 8
  %7 = alloca ptr, align 8
  %8 = alloca %"class.std::basic_string_view", align 8
  %9 = getelementptr inbounds { i64, ptr }, ptr %5, i32 0, i32 0
  store i64 %1, ptr %9, align 8
  %10 = getelementptr inbounds { i64, ptr }, ptr %5, i32 0, i32 1
  store ptr %2, ptr %10, align 8
  store ptr %0, ptr %6, align 8
  store ptr %3, ptr %7, align 8
  %11 = load ptr, ptr %6, align 8
  %12 = getelementptr inbounds %"class.WasmEdge::PO::ArgumentParser", ptr %11, i32 0, i32 0
  %13 = getelementptr inbounds %"class.WasmEdge::PO::ArgumentParser", ptr %11, i32 0, i32 1
  %14 = load i64, ptr %13, align 8
  %15 = call noundef nonnull align 8 dereferenceable(328) ptr @_ZNSt6vectorIN8WasmEdge2PO14ArgumentParser20SubCommandDescriptorESaIS3_EEixEm(ptr noundef nonnull align 8 dereferenceable(24) %12, i64 noundef %14) #2
  call void @llvm.memcpy.p0.p0.i64(ptr align 8 %8, ptr align 8 %5, i64 16, i1 false)
  %16 = load ptr, ptr %7, align 8
  %17 = getelementptr inbounds { i64, ptr }, ptr %8, i32 0, i32 0
  %18 = load i64, ptr %17, align 8
  %19 = getelementptr inbounds { i64, ptr }, ptr %8, i32 0, i32 1
  %20 = load ptr, ptr %19, align 8
  call void @_ZN8WasmEdge2PO14ArgumentParser20SubCommandDescriptor10add_optionINS0_6OptionIPaNS0_6ParserIaEEEEEEvSt17basic_string_viewIcSt11char_traitsIcEERT_(ptr noundef nonnull align 8 dereferenceable(328) %15, i64 %18, ptr %20, ptr noundef nonnull align 8 dereferenceable(49) %16) #2
  ret ptr %11
}

; Function Attrs: mustprogress nounwind uwtable
define linkonce_odr hidden void @_ZNSt17basic_string_viewIcSt11char_traitsIcEEC2EPKc(ptr noundef nonnull align 8 dereferenceable(16) %0, ptr noundef nonnull %1) unnamed_addr #1 comdat align 2 personality ptr @__gxx_personality_v0 {
  %3 = alloca ptr, align 8
  %4 = alloca ptr, align 8
  store ptr %0, ptr %3, align 8
  store ptr %1, ptr %4, align 8
  %5 = load ptr, ptr %3, align 8
  %6 = getelementptr inbounds %"class.std::basic_string_view", ptr %5, i32 0, i32 0
  %7 = load ptr, ptr %4, align 8
  %8 = invoke noundef i64 @_ZNSt11char_traitsIcE6lengthEPKc(ptr noundef %7)
          to label %9 unwind label %12

9:                                                ; preds = %2
  store i64 %8, ptr %6, align 8
  %10 = getelementptr inbounds %"class.std::basic_string_view", ptr %5, i32 0, i32 1
  %11 = load ptr, ptr %4, align 8
  store ptr %11, ptr %10, align 8
  ret void

12:                                               ; preds = %2
  %13 = landingpad { ptr, i32 }
          catch ptr null
  %14 = extractvalue { ptr, i32 } %13, 0
  call void @__clang_call_terminate(ptr %14) #18
  unreachable
}

; Function Attrs: mustprogress nounwind uwtable
define linkonce_odr hidden noundef nonnull align 8 dereferenceable(49) ptr @_ZNRSt8__detail9__variant14_UninitializedIN8WasmEdge2PO6OptionIPaNS3_6ParserIaEEEELb1EE6_M_getEv(ptr noundef nonnull align 8 dereferenceable(56) %0) #1 comdat align 2 {
  %2 = alloca ptr, align 8
  store ptr %0, ptr %2, align 8
  %3 = load ptr, ptr %2, align 8
  %4 = getelementptr inbounds %"struct.std::__detail::__variant::_Uninitialized.272", ptr %3, i32 0, i32 0
  ret ptr %4
}

; Function Attrs: mustprogress nounwind uwtable
define internal void @_ZZN8WasmEdge6Plugin12_GLOBAL__N_118CAPIPluginRegister17addOptionsWrapperEPKNS0_6Plugin16PluginDescriptorERNS_2PO14ArgumentParserEENKUlRT_E_clINS7_6OptionIPaNS7_6ParserIaEEEEEEDaSB_(ptr noundef nonnull align 8 dereferenceable(16) %0, ptr noundef nonnull align 8 dereferenceable(49) %1) #1 align 2 {
  %3 = alloca ptr, align 8
  %4 = alloca ptr, align 8
  %5 = alloca %"class.std::basic_string_view", align 8
  store ptr %0, ptr %3, align 8
  store ptr %1, ptr %4, align 8
  %6 = load ptr, ptr %3, align 8
  %7 = getelementptr inbounds %class.anon.318, ptr %6, i32 0, i32 1
  %8 = load ptr, ptr %7, align 8
  %9 = getelementptr inbounds %class.anon.318, ptr %6, i32 0, i32 0
  %10 = load ptr, ptr %9, align 8
  %11 = getelementptr inbounds %"struct.std::pair.267", ptr %10, i32 0, i32 0
  %12 = load ptr, ptr %11, align 8
  %13 = getelementptr inbounds %struct.WasmEdge_ProgramOption, ptr %12, i32 0, i32 0
  %14 = load ptr, ptr %13, align 8
  call void @_ZNSt17basic_string_viewIcSt11char_traitsIcEEC2EPKc(ptr noundef nonnull align 8 dereferenceable(16) %5, ptr noundef %14) #2
  %15 = load ptr, ptr %4, align 8
  %16 = getelementptr inbounds { i64, ptr }, ptr %5, i32 0, i32 0
  %17 = load i64, ptr %16, align 8
  %18 = getelementptr inbounds { i64, ptr }, ptr %5, i32 0, i32 1
  %19 = load ptr, ptr %18, align 8
  %20 = call noundef nonnull align 8 dereferenceable(88) ptr @_ZN8WasmEdge2PO14ArgumentParser10add_optionINS0_6OptionIPaNS0_6ParserIaEEEEEERS1_St17basic_string_viewIcSt11char_traitsIcEERT_(ptr noundef nonnull align 8 dereferenceable(88) %8, i64 %17, ptr %19, ptr noundef nonnull align 8 dereferenceable(49) %15) #2
  ret void
}

; Function Attrs: mustprogress nounwind uwtable
define linkonce_odr noundef nonnull align 8 dereferenceable(49) ptr @_ZNSt8__detail9__variant7__get_nILm1ERNS0_15_Variadic_unionIJN8WasmEdge2PO6OptionIPNS4_6ToggleENS4_6ParserIbEEEENS5_IPaNS8_IaEEEENS5_IPsNS8_IsEEEENS5_IPiNS8_IiEEEENS5_IPlNS8_IlEEEENS5_IPhNS8_IhEEEENS5_IPtNS8_ItEEEENS5_IPjNS8_IjEEEENS5_IPmNS8_ImEEEENS5_IPfNS8_IfEEEENS5_IPdNS8_IdEEEENS5_IP15WasmEdge_StringNS8_IS15_EEEEEEEEEDcOT0_(ptr noundef nonnull align 8 dereferenceable(56) %0) #1 comdat {
  %2 = alloca ptr, align 8
  store ptr %0, ptr %2, align 8
  %3 = load ptr, ptr %2, align 8
  %4 = call noundef nonnull align 8 dereferenceable(49) ptr @_ZNRSt8__detail9__variant14_UninitializedIN8WasmEdge2PO6OptionIPaNS3_6ParserIaEEEELb1EE6_M_getEv(ptr noundef nonnull align 8 dereferenceable(56) %3) #2
  ret ptr %4
}

; Function Attrs: mustprogress uwtable
define internal void @_ZSt13__invoke_implIvZN8WasmEdge6Plugin12_GLOBAL__N_118CAPIPluginRegister17addOptionsWrapperEPKNS1_6Plugin16PluginDescriptorERNS0_2PO14ArgumentParserEEUlRT_E_JRNS8_6OptionIPaNS8_6ParserIaEEEEEESB_St14__invoke_otherOT0_DpOT1_(ptr noundef nonnull align 8 dereferenceable(16) %0, ptr noundef nonnull align 8 dereferenceable(49) %1) #4 {
  %3 = alloca ptr, align 8
  %4 = alloca ptr, align 8
  store ptr %0, ptr %3, align 8
  store ptr %1, ptr %4, align 8
  %5 = load ptr, ptr %3, align 8
  %6 = load ptr, ptr %4, align 8
  call void @_ZZN8WasmEdge6Plugin12_GLOBAL__N_118CAPIPluginRegister17addOptionsWrapperEPKNS0_6Plugin16PluginDescriptorERNS_2PO14ArgumentParserEENKUlRT_E_clINS7_6OptionIPaNS7_6ParserIaEEEEEEDaSB_(ptr noundef nonnull align 8 dereferenceable(16) %5, ptr noundef nonnull align 8 dereferenceable(49) %6)
  ret void
}

; Function Attrs: mustprogress nounwind uwtable
define linkonce_odr noundef nonnull align 8 dereferenceable(49) ptr @_ZNSt8__detail9__variant5__getILm1ERSt7variantIJN8WasmEdge2PO6OptionIPNS4_6ToggleENS4_6ParserIbEEEENS5_IPaNS8_IaEEEENS5_IPsNS8_IsEEEENS5_IPiNS8_IiEEEENS5_IPlNS8_IlEEEENS5_IPhNS8_IhEEEENS5_IPtNS8_ItEEEENS5_IPjNS8_IjEEEENS5_IPmNS8_ImEEEENS5_IPfNS8_IfEEEENS5_IPdNS8_IdEEEENS5_IP15WasmEdge_StringNS8_IS15_EEEEEEEEDcOT0_(ptr noundef nonnull align 8 dereferenceable(57) %0) #1 comdat {
  %2 = alloca ptr, align 8
  store ptr %0, ptr %2, align 8
  %3 = load ptr, ptr %2, align 8
  %4 = getelementptr inbounds %"struct.std::__detail::__variant::_Variant_storage", ptr %3, i32 0, i32 0
  %5 = call noundef nonnull align 8 dereferenceable(49) ptr @_ZNSt8__detail9__variant7__get_nILm1ERNS0_15_Variadic_unionIJN8WasmEdge2PO6OptionIPNS4_6ToggleENS4_6ParserIbEEEENS5_IPaNS8_IaEEEENS5_IPsNS8_IsEEEENS5_IPiNS8_IiEEEENS5_IPlNS8_IlEEEENS5_IPhNS8_IhEEEENS5_IPtNS8_ItEEEENS5_IPjNS8_IjEEEENS5_IPmNS8_ImEEEENS5_IPfNS8_IfEEEENS5_IPdNS8_IdEEEENS5_IP15WasmEdge_StringNS8_IS15_EEEEEEEEEDcOT0_(ptr noundef nonnull align 8 dereferenceable(56) %4) #2
  ret ptr %5
}

; Function Attrs: mustprogress uwtable
define internal void @_ZSt8__invokeIZN8WasmEdge6Plugin12_GLOBAL__N_118CAPIPluginRegister17addOptionsWrapperEPKNS1_6Plugin16PluginDescriptorERNS0_2PO14ArgumentParserEEUlRT_E_JRNS8_6OptionIPaNS8_6ParserIaEEEEEENSt15__invoke_resultISB_JDpT0_EE4typeEOSB_DpOSL_(ptr noundef nonnull align 8 dereferenceable(16) %0, ptr noundef nonnull align 8 dereferenceable(49) %1) #4 {
  %3 = alloca ptr, align 8
  %4 = alloca ptr, align 8
  store ptr %0, ptr %3, align 8
  store ptr %1, ptr %4, align 8
  %5 = load ptr, ptr %3, align 8
  %6 = load ptr, ptr %4, align 8
  call void @_ZSt13__invoke_implIvZN8WasmEdge6Plugin12_GLOBAL__N_118CAPIPluginRegister17addOptionsWrapperEPKNS1_6Plugin16PluginDescriptorERNS0_2PO14ArgumentParserEEUlRT_E_JRNS8_6OptionIPaNS8_6ParserIaEEEEEESB_St14__invoke_otherOT0_DpOT1_(ptr noundef nonnull align 8 dereferenceable(16) %5, ptr noundef nonnull align 8 dereferenceable(49) %6)
  ret void
}

; Function Attrs: mustprogress nounwind uwtable
define internal noundef nonnull align 8 dereferenceable(49) ptr @_ZNSt8__detail9__variant17__gen_vtable_implINS0_12_Multi_arrayIPFNS0_21__deduce_visit_resultIvEEOZN8WasmEdge6Plugin12_GLOBAL__N_118CAPIPluginRegister17addOptionsWrapperEPKNS6_6Plugin16PluginDescriptorERNS5_2PO14ArgumentParserEEUlRT_E_RSt7variantIJNSD_6OptionIPNSD_6ToggleENSD_6ParserIbEEEENSL_IPaNSO_IaEEEENSL_IPsNSO_IsEEEENSL_IPiNSO_IiEEEENSL_IPlNSO_IlEEEENSL_IPhNSO_IhEEEENSL_IPtNSO_ItEEEENSL_IPjNSO_IjEEEENSL_IPmNSO_ImEEEENSL_IPfNSO_IfEEEENSL_IPdNSO_IdEEEENSL_IP15WasmEdge_StringNSO_IS1L_EEEEEEEJEEESt16integer_sequenceImJLm1EEEE28__element_by_index_or_cookieILm1ES1Q_EEDcOT0_(ptr noundef nonnull align 8 dereferenceable(57) %0) #1 align 2 {
  %2 = alloca ptr, align 8
  store ptr %0, ptr %2, align 8
  %3 = load ptr, ptr %2, align 8
  %4 = call noundef nonnull align 8 dereferenceable(49) ptr @_ZNSt8__detail9__variant5__getILm1ERSt7variantIJN8WasmEdge2PO6OptionIPNS4_6ToggleENS4_6ParserIbEEEENS5_IPaNS8_IaEEEENS5_IPsNS8_IsEEEENS5_IPiNS8_IiEEEENS5_IPlNS8_IlEEEENS5_IPhNS8_IhEEEENS5_IPtNS8_ItEEEENS5_IPjNS8_IjEEEENS5_IPmNS8_ImEEEENS5_IPfNS8_IfEEEENS5_IPdNS8_IdEEEENS5_IP15WasmEdge_StringNS8_IS15_EEEEEEEEDcOT0_(ptr noundef nonnull align 8 dereferenceable(57) %3) #2
  ret ptr %4
}

; Function Attrs: mustprogress uwtable
define internal void @_ZNSt8__detail9__variant17__gen_vtable_implINS0_12_Multi_arrayIPFNS0_21__deduce_visit_resultIvEEOZN8WasmEdge6Plugin12_GLOBAL__N_118CAPIPluginRegister17addOptionsWrapperEPKNS6_6Plugin16PluginDescriptorERNS5_2PO14ArgumentParserEEUlRT_E_RSt7variantIJNSD_6OptionIPNSD_6ToggleENSD_6ParserIbEEEENSL_IPaNSO_IaEEEENSL_IPsNSO_IsEEEENSL_IPiNSO_IiEEEENSL_IPlNSO_IlEEEENSL_IPhNSO_IhEEEENSL_IPtNSO_ItEEEENSL_IPjNSO_IjEEEENSL_IPmNSO_ImEEEENSL_IPfNSO_IfEEEENSL_IPdNSO_IdEEEENSL_IP15WasmEdge_StringNSO_IS1L_EEEEEEEJEEESt16integer_sequenceImJLm1EEEE14__visit_invokeESJ_S1Q_(ptr noundef nonnull align 8 dereferenceable(16) %0, ptr noundef nonnull align 8 dereferenceable(57) %1) #4 align 2 {
  %3 = alloca ptr, align 8
  %4 = alloca ptr, align 8
  store ptr %0, ptr %3, align 8
  store ptr %1, ptr %4, align 8
  %5 = load ptr, ptr %3, align 8
  %6 = load ptr, ptr %4, align 8
  %7 = call noundef nonnull align 8 dereferenceable(49) ptr @_ZNSt8__detail9__variant17__gen_vtable_implINS0_12_Multi_arrayIPFNS0_21__deduce_visit_resultIvEEOZN8WasmEdge6Plugin12_GLOBAL__N_118CAPIPluginRegister17addOptionsWrapperEPKNS6_6Plugin16PluginDescriptorERNS5_2PO14ArgumentParserEEUlRT_E_RSt7variantIJNSD_6OptionIPNSD_6ToggleENSD_6ParserIbEEEENSL_IPaNSO_IaEEEENSL_IPsNSO_IsEEEENSL_IPiNSO_IiEEEENSL_IPlNSO_IlEEEENSL_IPhNSO_IhEEEENSL_IPtNSO_ItEEEENSL_IPjNSO_IjEEEENSL_IPmNSO_ImEEEENSL_IPfNSO_IfEEEENSL_IPdNSO_IdEEEENSL_IP15WasmEdge_StringNSO_IS1L_EEEEEEEJEEESt16integer_sequenceImJLm1EEEE28__element_by_index_or_cookieILm1ES1Q_EEDcOT0_(ptr noundef nonnull align 8 dereferenceable(57) %6) #2
  call void @_ZSt8__invokeIZN8WasmEdge6Plugin12_GLOBAL__N_118CAPIPluginRegister17addOptionsWrapperEPKNS1_6Plugin16PluginDescriptorERNS0_2PO14ArgumentParserEEUlRT_E_JRNS8_6OptionIPaNS8_6ParserIaEEEEEENSt15__invoke_resultISB_JDpT0_EE4typeEOSB_DpOSL_(ptr noundef nonnull align 8 dereferenceable(16) %5, ptr noundef nonnull align 8 dereferenceable(49) %7)
  ret void
}